; Function Attrs: mustprogress uwtable
define hidden noundef ptr @pj_mbt_s(ptr noundef %0) local_unnamed_addr #0 {
  %.not = icmp eq ptr %0, null
  br i1 %.not, label %14, label %2

2:                                                ; preds = %1
  %3 = tail call noalias dereferenceable_or_null(32) ptr @calloc(i64 noundef 1, i64 noundef 32) #5
  %4 = icmp eq ptr %3, null
  br i1 %4, label %5, label %7

5:                                                ; preds = %2
  %6 = tail call noundef ptr @_Z21pj_default_destructorP8PJconstsi(ptr noundef nonnull %0, i32 noundef 4096)
  br label %_Z34pj_projection_specific_setup_mbt_sP8PJconsts.exit

7:                                                ; preds = %2
  %8 = getelementptr inbounds nuw i8, ptr %0, i64 88
  store ptr %3, ptr %8, align 8, !tbaa !3
  %9 = getelementptr inbounds nuw i8, ptr %0, i64 216
  store double 0.000000e+00, ptr %9, align 8, !tbaa !36
  %10 = getelementptr inbounds nuw i8, ptr %0, i64 112
  store ptr @_ZL13sts_s_inverse5PJ_XYP8PJconsts, ptr %10, align 8, !tbaa !37
  %11 = getelementptr inbounds nuw i8, ptr %0, i64 104
  store ptr @_ZL13sts_s_forward5PJ_LPP8PJconsts, ptr %11, align 8, !tbaa !38
  store double 0x3FED578C524FE331, ptr %3, align 8, !tbaa !39
  %12 = getelementptr inbounds nuw i8, ptr %3, i64 8
  store double 1.488750e+00, ptr %12, align 8, !tbaa !41
  %13 = getelementptr inbounds nuw i8, ptr %3, i64 16
  store double 0x3FE77111CC7DF84F, ptr %13, align 8, !tbaa !42
  br label %_Z34pj_projection_specific_setup_mbt_sP8PJconsts.exit

14:                                               ; preds = %1
  %15 = tail call noundef ptr @_Z6pj_newv()
  %16 = icmp eq ptr %15, null
  br i1 %16, label %_Z34pj_projection_specific_setup_mbt_sP8PJconsts.exit, label %17

17:                                               ; preds = %14
  %18 = getelementptr inbounds nuw i8, ptr %15, i64 8
  store ptr @.str.3, ptr %18, align 8, !tbaa !44
  %19 = getelementptr inbounds nuw i8, ptr %15, i64 16
  store ptr @_ZL9des_mbt_s, ptr %19, align 8, !tbaa !45
  %20 = getelementptr inbounds nuw i8, ptr %15, i64 360
  store i32 1, ptr %20, align 8, !tbaa !46
  %21 = getelementptr inbounds nuw i8, ptr %15, i64 380
  store i32 4, ptr %21, align 4, !tbaa !47
  %22 = getelementptr inbounds nuw i8, ptr %15, i64 384
  store i32 1, ptr %22, align 8, !tbaa !48
  br label %_Z34pj_projection_specific_setup_mbt_sP8PJconsts.exit

_Z34pj_projection_specific_setup_mbt_sP8PJconsts.exit: ; preds = %7, %5, %14, %17
  %.0 = phi ptr [ %15, %17 ], [ null, %14 ], [ %6, %5 ], [ %0, %7 ]
  ret ptr %.0
}